Certificate:
    Data:
        Version: 3 (0x2)
        Serial Number: 13167323736020945820 (0xb6bbbb2ca8190b9c)
    Signature Algorithm: sha256WithRSAEncryption
        Issuer: C=US, ST=North Carolina, L=Raleigh, O=Katello, OU=SomeOrgUnit, CN=npgsrhsat02v.frbnpgs.com
        Validity
            Not Before: Aug 30 17:17:28 2016 GMT
            Not After : Jan 17 17:17:28 2038 GMT
        Subject: C=US, ST=North Carolina, L=Raleigh, O=Katello, OU=SomeOrgUnit, CN=npgsrhsat02v.frbnpgs.com
        Subject Public Key Info:
            Public Key Algorithm: rsaEncryption
                Public-Key: (2048 bit)
                Modulus:
                    00:c9:8a:dd:b4:74:e9:af:bf:14:9b:27:fd:fd:83:
                    87:13:24:9c:a1:bb:97:97:cc:1a:c1:26:60:1e:45:
                    b6:7d:5e:5d:ac:59:e8:fc:d9:10:e2:89:77:21:f8:
                    d9:3b:a1:8e:f2:4f:89:5f:f3:28:fe:c3:2c:e2:78:
                    e6:a2:66:bb:cc:49:be:c7:a3:3e:5b:fc:cc:33:52:
                    f7:08:29:0d:de:aa:cf:66:e9:88:31:ac:ce:ad:bf:
                    7d:7c:73:64:32:bb:f4:e5:bd:c6:da:7d:b5:83:c4:
                    43:d4:b2:9c:8f:4c:0e:e1:5c:ad:c9:f4:d3:c7:54:
                    41:56:11:4c:19:49:b1:1d:8d:46:d3:c0:35:1d:3f:
                    b2:de:de:7d:80:ae:23:56:21:f0:3d:62:5a:32:d3:
                    af:de:7d:93:9b:0c:14:f0:b8:92:dd:cb:c3:11:49:
                    e5:e8:90:1f:f5:a8:0f:89:b9:bc:f0:57:9f:74:e2:
                    e5:b9:ba:d1:10:af:cd:f2:5d:13:8c:f4:76:aa:4d:
                    b6:5b:99:c2:1e:e8:fa:f4:5d:b2:ff:0b:8f:35:5e:
                    74:de:43:eb:53:c1:d3:41:ec:76:50:23:01:fa:3a:
                    02:50:01:28:58:22:82:2f:0e:ac:65:d2:ac:d1:be:
                    24:c9:a0:45:85:1a:1d:20:91:de:15:c3:e0:30:ef:
                    32:49
                Exponent: 65537 (0x10001)
        X509v3 extensions:
            X509v3 Basic Constraints: 
                CA:TRUE
            X509v3 Key Usage: 
                Digital Signature, Key Encipherment, Certificate Sign, CRL Sign
            X509v3 Extended Key Usage: 
                TLS Web Server Authentication, TLS Web Client Authentication
            Netscape Cert Type: 
                SSL Server, SSL CA
            Netscape Comment: 
                Katello SSL Tool Generated Certificate
            X509v3 Subject Key Identifier: 
                EA:D3:F1:81:4C:D1:97:E0:69:E7:47:1F:D5:41:3E:38:E3:E9:E0:00
            X509v3 Authority Key Identifier: 
                keyid:EA:D3:F1:81:4C:D1:97:E0:69:E7:47:1F:D5:41:3E:38:E3:E9:E0:00
                DirName:/C=US/ST=North Carolina/L=Raleigh/O=Katello/OU=SomeOrgUnit/CN=npgsrhsat02v.frbnpgs.com
                serial:B6:BB:BB:2C:A8:19:0B:9C

    Signature Algorithm: sha256WithRSAEncryption
         91:4e:cf:d6:80:e7:ea:6a:16:8e:11:03:47:9f:16:86:20:2f:
         70:ea:1e:b4:62:25:4c:94:96:10:e5:32:e7:f3:3d:3d:3e:3a:
         b2:5d:d5:fc:a7:56:d3:e8:61:19:80:59:ef:cd:9f:9c:2c:17:
         b6:ed:13:e8:06:18:34:ae:c2:47:34:3f:4b:14:23:a1:10:ae:
         09:4d:2a:02:dd:a0:a0:98:f0:04:c9:8f:e8:7e:66:e6:d6:57:
         d0:8b:c6:85:66:46:f6:8c:18:3a:c0:c1:29:49:da:b6:7f:04:
         69:70:5d:69:28:5b:25:91:6a:c8:fa:b1:ac:e4:2e:8d:86:fb:
         ff:f7:7d:7a:e0:09:24:d7:c9:ab:a5:07:22:25:8a:77:4c:d3:
         00:9e:3b:f2:13:8d:63:13:e1:1d:e7:7b:bb:b6:7e:4e:8c:68:
         8f:7d:2d:b9:cc:a3:ed:0b:f7:19:df:b0:e8:98:2b:65:66:5d:
         39:7e:78:64:df:01:cb:4b:66:ca:aa:a0:1b:5e:42:e6:6e:85:
         87:7b:0f:0d:9b:70:39:43:8e:0f:2b:db:37:e8:bb:6d:2d:37:
         93:93:19:f1:86:47:60:47:6d:7c:49:7f:b8:5c:76:66:cd:d1:
         97:b7:20:88:dd:33:bf:97:90:17:7e:fc:ca:53:f5:83:cc:dd:
         2c:99:a4:4e
-----BEGIN CERTIFICATE-----
MIIE7zCCA9egAwIBAgIJALa7uyyoGQucMA0GCSqGSIb3DQEBCwUAMIGDMQswCQYD
VQQGEwJVUzEXMBUGA1UECBMOTm9ydGggQ2Fyb2xpbmExEDAOBgNVBAcTB1JhbGVp
Z2gxEDAOBgNVBAoTB0thdGVsbG8xFDASBgNVBAsTC1NvbWVPcmdVbml0MSEwHwYD
VQQDExhucGdzcmhzYXQwMnYuZnJibnBncy5jb20wHhcNMTYwODMwMTcxNzI4WhcN
MzgwMTE3MTcxNzI4WjCBgzELMAkGA1UEBhMCVVMxFzAVBgNVBAgTDk5vcnRoIENh
cm9saW5hMRAwDgYDVQQHEwdSYWxlaWdoMRAwDgYDVQQKEwdLYXRlbGxvMRQwEgYD
VQQLEwtTb21lT3JnVW5pdDEhMB8GA1UEAxMYbnBnc3Joc2F0MDJ2LmZyYm5wZ3Mu
Y29tMIIBIjANBgkqhkiG9w0BAQEFAAOCAQ8AMIIBCgKCAQEAyYrdtHTpr78Umyf9
/YOHEyScobuXl8wawSZgHkW2fV5drFno/NkQ4ol3IfjZO6GO8k+JX/Mo/sMs4njm
oma7zEm+x6M+W/zMM1L3CCkN3qrPZumIMazOrb99fHNkMrv05b3G2n21g8RD1LKc
j0wO4VytyfTTx1RBVhFMGUmxHY1G08A1HT+y3t59gK4jViHwPWJaMtOv3n2TmwwU
8LiS3cvDEUnl6JAf9agPibm88FefdOLlubrREK/N8l0TjPR2qk22W5nCHuj69F2y
/wuPNV503kPrU8HTQex2UCMB+joCUAEoWCKCLw6sZdKs0b4kyaBFhRodIJHeFcPg
MO8ySQIDAQABo4IBYjCCAV4wDAYDVR0TBAUwAwEB/zALBgNVHQ8EBAMCAaYwHQYD
VR0lBBYwFAYIKwYBBQUHAwEGCCsGAQUFBwMCMBEGCWCGSAGG+EIBAQQEAwICRDA1
BglghkgBhvhCAQ0EKBYmS2F0ZWxsbyBTU0wgVG9vbCBHZW5lcmF0ZWQgQ2VydGlm
aWNhdGUwHQYDVR0OBBYEFOrT8YFM0ZfgaedHH9VBPjjj6eAAMIG4BgNVHSMEgbAw
ga2AFOrT8YFM0ZfgaedHH9VBPjjj6eAAoYGJpIGGMIGDMQswCQYDVQQGEwJVUzEX
MBUGA1UECBMOTm9ydGggQ2Fyb2xpbmExEDAOBgNVBAcTB1JhbGVpZ2gxEDAOBgNV
BAoTB0thdGVsbG8xFDASBgNVBAsTC1NvbWVPcmdVbml0MSEwHwYDVQQDExhucGdz
cmhzYXQwMnYuZnJibnBncy5jb22CCQC2u7ssqBkLnDANBgkqhkiG9w0BAQsFAAOC
AQEAkU7P1oDn6moWjhEDR58WhiAvcOoetGIlTJSWEOUy5/M9PT46sl3V/KdW0+hh
GYBZ782fnCwXtu0T6AYYNK7CRzQ/SxQjoRCuCU0qAt2goJjwBMmP6H5m5tZX0IvG
hWZG9owYOsDBKUnatn8EaXBdaShbJZFqyPqxrOQujYb7//d9euAJJNfJq6UHIiWK
d0zTAJ478hONYxPhHed7u7Z+Toxoj30tucyj7Qv3Gd+w6JgrZWZdOX54ZN8By0tm
yqqgG15C5m6Fh3sPDZtwOUOODyvbN+i7bS03k5MZ8YZHYEdtfEl/uFx2Zs3Rl7cg
iN0zv5eQF378ylP1g8zdLJmkTg==
-----END CERTIFICATE-----
